; Function Attrs: mustprogress uwtable
define noundef zeroext i1 @_ZNK32pxrInternal_v0_24__pxrReserved__15SdfAbstractData7IsEmptyEv(ptr noundef nonnull align 8 dereferenceable(24) %0) unnamed_addr #1 align 2 personality ptr @__gxx_personality_v0 {
.noexc:
  %1 = alloca %"struct.pxrInternal_v0_24__pxrReserved__::SdfAbstractData_IsEmptyChecker", align 8
  store ptr getelementptr inbounds inrange(-16, 32) (i8, ptr @_ZTVN32pxrInternal_v0_24__pxrReserved__30SdfAbstractData_IsEmptyCheckerE, i64 16), ptr %1, align 8
  %2 = getelementptr inbounds nuw i8, ptr %1, i64 8
  store i8 1, ptr %2, align 8
  %3 = load ptr, ptr %0, align 8
  %4 = getelementptr inbounds i8, ptr %3, i64 312
  %5 = load ptr, ptr %4, align 8
  call void %5(ptr noundef nonnull align 8 dereferenceable(24) %0, ptr noundef nonnull %1)
  %6 = load ptr, ptr %1, align 8
  %7 = getelementptr inbounds i8, ptr %6, i64 24
  %8 = load ptr, ptr %7, align 8
  call void %8(ptr noundef nonnull align 8 dereferenceable(8) %1, ptr noundef nonnull align 8 dereferenceable(24) %0)
  %9 = load i8, ptr %2, align 8
  %10 = trunc i8 %9 to i1
  ret i1 %10
}